target datalayout = "e-m:e-p270:32:32-p271:32:32-p272:64:64-i64:64-i128:128-f80:128-n8:16:32:64-S128"
target triple = "x86_64-pc-linux-gnu"

@.str.6 = private unnamed_addr constant [20 x i8] c"%s expected, got %s\00", align 1
@.str.10 = private unnamed_addr constant [20 x i8] c"invalid option '%s'\00", align 1

; Function Attrs: nounwind uwtable
define dso_local i32 @luaL_typerror(ptr noundef %0, i32 noundef %1, ptr noundef %2) #0 {
  %4 = alloca ptr, align 8
  %5 = alloca i32, align 4
  %6 = alloca ptr, align 8
  %7 = alloca ptr, align 8
  store ptr %0, ptr %4, align 8, !tbaa !4
  store i32 %1, ptr %5, align 4, !tbaa !9
  store ptr %2, ptr %6, align 8, !tbaa !11
  call void @llvm.lifetime.start.p0(i64 8, ptr %7) #9
  %8 = load ptr, ptr %4, align 8, !tbaa !4
  %9 = load ptr, ptr %6, align 8, !tbaa !11
  %10 = load ptr, ptr %4, align 8, !tbaa !4
  %11 = load ptr, ptr %4, align 8, !tbaa !4
  %12 = load i32, ptr %5, align 4, !tbaa !9
  %13 = call i32 @lua_type(ptr noundef %11, i32 noundef %12)
  %14 = call ptr @lua_typename(ptr noundef %10, i32 noundef %13)
  %15 = call ptr (ptr, ptr, ...) @lua_pushfstring(ptr noundef %8, ptr noundef @.str.6, ptr noundef %9, ptr noundef %14)
  store ptr %15, ptr %7, align 8, !tbaa !11
  %16 = load ptr, ptr %4, align 8, !tbaa !4
  %17 = load i32, ptr %5, align 4, !tbaa !9
  %18 = load ptr, ptr %7, align 8, !tbaa !11
  %19 = call i32 @luaL_argerror(ptr noundef %16, i32 noundef %17, ptr noundef %18)
  call void @llvm.lifetime.end.p0(i64 8, ptr %7) #9
  ret i32 %19
}

; Function Attrs: nounwind uwtable
define internal void @tag_error(ptr noundef %0, i32 noundef %1, i32 noundef %2) #0 {
  %4 = alloca ptr, align 8
  %5 = alloca i32, align 4
  %6 = alloca i32, align 4
  store ptr %0, ptr %4, align 8, !tbaa !4
  store i32 %1, ptr %5, align 4, !tbaa !9
  store i32 %2, ptr %6, align 4, !tbaa !9
  %7 = load ptr, ptr %4, align 8, !tbaa !4
  %8 = load i32, ptr %5, align 4, !tbaa !9
  %9 = load ptr, ptr %4, align 8, !tbaa !4
  %10 = load i32, ptr %6, align 4, !tbaa !9
  %11 = call ptr @lua_typename(ptr noundef %9, i32 noundef %10)
  %12 = call i32 @luaL_typerror(ptr noundef %7, i32 noundef %8, ptr noundef %11)
  ret void
}

; Function Attrs: nounwind uwtable
define dso_local ptr @luaL_checklstring(ptr noundef %0, i32 noundef %1, ptr noundef %2) #0 {
  %4 = alloca ptr, align 8
  %5 = alloca i32, align 4
  %6 = alloca ptr, align 8
  %7 = alloca ptr, align 8
  store ptr %0, ptr %4, align 8, !tbaa !4
  store i32 %1, ptr %5, align 4, !tbaa !9
  store ptr %2, ptr %6, align 8, !tbaa !21
  call void @llvm.lifetime.start.p0(i64 8, ptr %7) #9
  %8 = load ptr, ptr %4, align 8, !tbaa !4
  %9 = load i32, ptr %5, align 4, !tbaa !9
  %10 = load ptr, ptr %6, align 8, !tbaa !21
  %11 = call ptr @lua_tolstring(ptr noundef %8, i32 noundef %9, ptr noundef %10)
  store ptr %11, ptr %7, align 8, !tbaa !11
  %12 = load ptr, ptr %7, align 8, !tbaa !11
  %13 = icmp ne ptr %12, null
  br i1 %13, label %17, label %14

14:                                               ; preds = %3
  %15 = load ptr, ptr %4, align 8, !tbaa !4
  %16 = load i32, ptr %5, align 4, !tbaa !9
  call void @tag_error(ptr noundef %15, i32 noundef %16, i32 noundef 4)
  br label %17

17:                                               ; preds = %14, %3
  %18 = load ptr, ptr %7, align 8, !tbaa !11
  call void @llvm.lifetime.end.p0(i64 8, ptr %7) #9
  ret ptr %18
}

; Function Attrs: nounwind uwtable
define dso_local i32 @luaL_checkoption(ptr noundef %0, i32 noundef %1, ptr noundef %2, ptr noundef %3) #0 {
  %5 = alloca i32, align 4
  %6 = alloca ptr, align 8
  %7 = alloca i32, align 4
  %8 = alloca ptr, align 8
  %9 = alloca ptr, align 8
  %10 = alloca ptr, align 8
  %11 = alloca i32, align 4
  %12 = alloca i32, align 4
  store ptr %0, ptr %6, align 8, !tbaa !4
  store i32 %1, ptr %7, align 4, !tbaa !9
  store ptr %2, ptr %8, align 8, !tbaa !11
  store ptr %3, ptr %9, align 8, !tbaa !17
  call void @llvm.lifetime.start.p0(i64 8, ptr %10) #9
  %13 = load ptr, ptr %8, align 8, !tbaa !11
  %14 = icmp ne ptr %13, null
  br i1 %14, label %15, label %20

15:                                               ; preds = %4
  %16 = load ptr, ptr %6, align 8, !tbaa !4
  %17 = load i32, ptr %7, align 4, !tbaa !9
  %18 = load ptr, ptr %8, align 8, !tbaa !11
  %19 = call ptr @luaL_optlstring(ptr noundef %16, i32 noundef %17, ptr noundef %18, ptr noundef null)
  br label %24

20:                                               ; preds = %4
  %21 = load ptr, ptr %6, align 8, !tbaa !4
  %22 = load i32, ptr %7, align 4, !tbaa !9
  %23 = call ptr @luaL_checklstring(ptr noundef %21, i32 noundef %22, ptr noundef null)
  br label %24

24:                                               ; preds = %20, %15
  %25 = phi ptr [ %19, %15 ], [ %23, %20 ]
  store ptr %25, ptr %10, align 8, !tbaa !11
  call void @llvm.lifetime.start.p0(i64 4, ptr %11) #9
  store i32 0, ptr %11, align 4, !tbaa !9
  br label %26

26:                                               ; preds = %45, %24
  %27 = load ptr, ptr %9, align 8, !tbaa !17
  %28 = load i32, ptr %11, align 4, !tbaa !9
  %29 = sext i32 %28 to i64
  %30 = getelementptr inbounds ptr, ptr %27, i64 %29
  %31 = load ptr, ptr %30, align 8, !tbaa !11
  %32 = icmp ne ptr %31, null
  br i1 %32, label %33, label %48

33:                                               ; preds = %26
  %34 = load ptr, ptr %9, align 8, !tbaa !17
  %35 = load i32, ptr %11, align 4, !tbaa !9
  %36 = sext i32 %35 to i64
  %37 = getelementptr inbounds ptr, ptr %34, i64 %36
  %38 = load ptr, ptr %37, align 8, !tbaa !11
  %39 = load ptr, ptr %10, align 8, !tbaa !11
  %40 = call i32 @strcmp(ptr noundef %38, ptr noundef %39) #10
  %41 = icmp eq i32 %40, 0
  br i1 %41, label %42, label %44

42:                                               ; preds = %33
  %43 = load i32, ptr %11, align 4, !tbaa !9
  store i32 %43, ptr %5, align 4
  store i32 1, ptr %12, align 4
  br label %55

44:                                               ; preds = %33
  br label %45

45:                                               ; preds = %44
  %46 = load i32, ptr %11, align 4, !tbaa !9
  %47 = add nsw i32 %46, 1
  store i32 %47, ptr %11, align 4, !tbaa !9
  br label %26, !llvm.loop !19

48:                                               ; preds = %26
  %49 = load ptr, ptr %6, align 8, !tbaa !4
  %50 = load i32, ptr %7, align 4, !tbaa !9
  %51 = load ptr, ptr %6, align 8, !tbaa !4
  %52 = load ptr, ptr %10, align 8, !tbaa !11
  %53 = call ptr (ptr, ptr, ...) @lua_pushfstring(ptr noundef %51, ptr noundef @.str.10, ptr noundef %52)
  %54 = call i32 @luaL_argerror(ptr noundef %49, i32 noundef %50, ptr noundef %53)
  store i32 %54, ptr %5, align 4
  store i32 1, ptr %12, align 4
  br label %55

55:                                               ; preds = %48, %42
  call void @llvm.lifetime.end.p0(i64 4, ptr %11) #9
  call void @llvm.lifetime.end.p0(i64 8, ptr %10) #9
  %56 = load i32, ptr %5, align 4
  ret i32 %56
}