; Function Attrs: nounwind uwtable
define dso_local i32 @luaL_checkoption(ptr noundef %0, i32 noundef %1, ptr noundef %2, ptr noundef readonly captures(none) %3) local_unnamed_addr #0 {
  %.not = icmp eq ptr %2, null
  br i1 %.not, label %7, label %5

5:                                                ; preds = %4
  %6 = tail call ptr @luaL_optlstring(ptr noundef %0, i32 noundef %1, ptr noundef nonnull %2, ptr noundef null)
  br label %luaL_checklstring.exit

7:                                                ; preds = %4
  %8 = tail call ptr @lua_tolstring(ptr noundef %0, i32 noundef %1, ptr noundef null) #17
  %.not.i = icmp eq ptr %8, null
  br i1 %.not.i, label %9, label %luaL_checklstring.exit

9:                                                ; preds = %7
  %10 = tail call ptr @lua_typename(ptr noundef %0, i32 noundef 4) #17
  %11 = tail call i32 @lua_type(ptr noundef %0, i32 noundef %1) #17
  %12 = tail call ptr @lua_typename(ptr noundef %0, i32 noundef %11) #17
  %13 = tail call ptr (ptr, ptr, ...) @lua_pushfstring(ptr noundef %0, ptr noundef nonnull @.str.6, ptr noundef %10, ptr noundef %12) #17
  %14 = tail call i32 @luaL_argerror(ptr noundef %0, i32 noundef %1, ptr noundef %13)
  br label %luaL_checklstring.exit

luaL_checklstring.exit:                           ; preds = %9, %7, %5
  %15 = phi ptr [ %6, %5 ], [ %8, %7 ], [ null, %9 ]
  %16 = load ptr, ptr %3, align 8, !tbaa !13
  %.not2022 = icmp eq ptr %16, null
  br i1 %.not2022, label %._crit_edge, label %.lr.ph

.lr.ph:                                           ; preds = %luaL_checklstring.exit, %20
  %indvars.iv = phi i64 [ %indvars.iv.next, %20 ], [ 0, %luaL_checklstring.exit ]
  %17 = phi ptr [ %22, %20 ], [ %16, %luaL_checklstring.exit ]
  %18 = tail call i32 @strcmp(ptr noundef nonnull dereferenceable(1) %17, ptr noundef nonnull dereferenceable(1) %15) #18
  %19 = icmp eq i32 %18, 0
  br i1 %19, label %.loopexit.loopexit, label %20

20:                                               ; preds = %.lr.ph
  %indvars.iv.next = add nuw nsw i64 %indvars.iv, 1
  %21 = getelementptr inbounds nuw ptr, ptr %3, i64 %indvars.iv.next
  %22 = load ptr, ptr %21, align 8, !tbaa !13
  %.not20 = icmp eq ptr %22, null
  br i1 %.not20, label %._crit_edge, label %.lr.ph, !llvm.loop !14

._crit_edge:                                      ; preds = %20, %luaL_checklstring.exit
  %23 = tail call ptr (ptr, ptr, ...) @lua_pushfstring(ptr noundef %0, ptr noundef nonnull @.str.10, ptr noundef %15) #17
  %24 = tail call i32 @luaL_argerror(ptr noundef %0, i32 noundef %1, ptr noundef %23)
  br label %.loopexit

.loopexit.loopexit:                               ; preds = %.lr.ph
  %25 = trunc nuw nsw i64 %indvars.iv to i32
  br label %.loopexit

.loopexit:                                        ; preds = %.loopexit.loopexit, %._crit_edge
  %.017 = phi i32 [ %24, %._crit_edge ], [ %25, %.loopexit.loopexit ]
  ret i32 %.017
}